target datalayout = "e-m:e-p270:32:32-p271:32:32-p272:64:64-i64:64-i128:128-f80:128-n8:16:32:64-S128"
target triple = "x86_64-pc-linux-gnu"

%struct.H5D_chk_idx_info_t = type { ptr, ptr, ptr, ptr }
%struct.H5O_layout_chunk_t = type { i32, i8, i32, [33 x i32], i32, i32, i64, i64, [33 x i64], [33 x i64], [33 x i64], [33 x i64], %union.anon.0 }
%union.anon.0 = type { %struct.H5O_layout_chunk_earray_t }
%struct.H5O_layout_chunk_earray_t = type { %struct.anon.1, i32, [33 x i32], [33 x i64], [33 x i64] }
%struct.anon.1 = type { i8, i8, i8, i8, i8 }
%struct.H5O_storage_chunk_t = type { i32, i64, ptr, %union.anon.4 }
%union.anon.4 = type { %struct.H5O_storage_chunk_btree_t }
%struct.H5O_storage_chunk_btree_t = type { i64, ptr }
%struct.H5O_storage_chunk_earray_t = type { i64, ptr }
%struct.H5O_pline_t = type { %struct.H5O_shared_t, i32, i64, i64, ptr }
%struct.H5O_shared_t = type { i32, ptr, i32, %union.anon.5 }
%union.anon.5 = type { %struct.H5O_mesg_loc_t }
%struct.H5O_mesg_loc_t = type { i32, i64 }
%struct.H5D_chunk_common_ud_t = type { ptr, ptr, ptr }
%struct.H5EA_stat_t = type { %struct.anon.6, %struct.anon.7 }
%struct.anon.6 = type { i64, i64, i64 }
%struct.anon.7 = type { i64, i64, i64, i64, i64, i64 }
%struct.H5D_earray_it_ud_t = type { %struct.H5D_chunk_common_ud_t, %struct.H5D_chunk_rec_t, i8, ptr, ptr }
%struct.H5D_chunk_rec_t = type { [33 x i64], i32, i32, i64 }

@H5D_init_g = external global i8, align 1
@H5_libterm_g = external global i8, align 1
@.str.2 = private unnamed_addr constant [103 x i8] c"generated/home/dtcxzyw/WorkSpace/Projects/compilers/llvm-opt-benchmark/bench/hdf5/hdf5/src/H5Dearray.c\00", align 1
@H5E_DATASET_g = external global i64, align 8
@H5E_CANTOPENOBJ_g = external global i64, align 8
@H5E_CANTGET_g = external global i64, align 8
@.str.25 = private unnamed_addr constant [28 x i8] c"can't open extensible array\00", align 1
@__func__.H5D__earray_idx_iterate = private unnamed_addr constant [24 x i8] c"H5D__earray_idx_iterate\00", align 1
@.str.34 = private unnamed_addr constant [40 x i8] c"can't query extensible array statistics\00", align 1
@H5E_BADITER_g = external global i64, align 8
@.str.35 = private unnamed_addr constant [47 x i8] c"unable to iterate over fixed array chunk index\00", align 1

; Function Attrs: nounwind uwtable
define internal i32 @H5D__earray_idx_iterate(ptr noundef %0, ptr noundef %1, ptr noundef %2) #0 {
  %4 = alloca ptr, align 8
  %5 = alloca ptr, align 8
  %6 = alloca ptr, align 8
  %7 = alloca ptr, align 8
  %8 = alloca %struct.H5EA_stat_t, align 8
  %9 = alloca i32, align 4
  %10 = alloca i8, align 1
  %11 = alloca %struct.H5D_earray_it_ud_t, align 8
  store ptr %0, ptr %4, align 8, !tbaa !3
  store ptr %1, ptr %5, align 8, !tbaa !80
  store ptr %2, ptr %6, align 8, !tbaa !80
  call void @llvm.lifetime.start.p0(i64 8, ptr %7) #8
  call void @llvm.lifetime.start.p0(i64 72, ptr %8) #8
  call void @llvm.lifetime.start.p0(i64 4, ptr %9) #8
  store i32 0, ptr %9, align 4, !tbaa !12
  call void @llvm.lifetime.start.p0(i64 1, ptr %10) #8
  store i8 0, ptr %10, align 1, !tbaa !14
  %12 = load i8, ptr @H5D_init_g, align 1, !tbaa !14, !range !16, !noundef !17
  %13 = trunc i8 %12 to i1
  br i1 %13, label %18, label %14

14:                                               ; preds = %3
  %15 = load i8, ptr @H5_libterm_g, align 1, !tbaa !14, !range !16, !noundef !17
  %16 = trunc i8 %15 to i1
  %17 = xor i1 %16, true
  br label %18

18:                                               ; preds = %14, %3
  %19 = phi i1 [ true, %3 ], [ %17, %14 ]
  %20 = xor i1 %19, true
  %21 = xor i1 %20, true
  %22 = zext i1 %21 to i32
  %23 = sext i32 %22 to i64
  %24 = call i64 @llvm.expect.i64(i64 %23, i64 1)
  %25 = icmp ne i64 %24, 0
  br i1 %25, label %26, label %154

26:                                               ; preds = %18
  %27 = load ptr, ptr %4, align 8, !tbaa !3
  %28 = getelementptr inbounds nuw %struct.H5D_chk_idx_info_t, ptr %27, i32 0, i32 3
  %29 = load ptr, ptr %28, align 8, !tbaa !27
  %30 = getelementptr inbounds nuw %struct.H5O_storage_chunk_t, ptr %29, i32 0, i32 3
  %31 = getelementptr inbounds nuw %struct.H5O_storage_chunk_earray_t, ptr %30, i32 0, i32 1
  %32 = load ptr, ptr %31, align 8, !tbaa !26
  %33 = icmp ne ptr null, %32
  br i1 %33, label %58, label %34

34:                                               ; preds = %26
  %35 = load ptr, ptr %4, align 8, !tbaa !3
  %36 = call i32 @H5D__earray_idx_open(ptr noundef %35)
  %37 = icmp slt i32 %36, 0
  br i1 %37, label %38, label %57

38:                                               ; preds = %34
  br label %39

39:                                               ; preds = %38
  br label %40

40:                                               ; preds = %39
  br label %41

41:                                               ; preds = %40
  %42 = load i64, ptr @H5E_DATASET_g, align 8, !tbaa !10
  %43 = load i64, ptr @H5E_CANTOPENOBJ_g, align 8, !tbaa !10
  %44 = call i32 (ptr, ptr, i32, i64, i64, ptr, ...) @H5E_printf_stack(ptr noundef @.str.2, ptr noundef @__func__.H5D__earray_idx_iterate, i32 noundef 1334, i64 noundef %42, i64 noundef %43, ptr noundef @.str.25)
  br label %45

45:                                               ; preds = %41
  br label %46

46:                                               ; preds = %45
  store i8 1, ptr %10, align 1, !tbaa !14
  %47 = load i8, ptr %10, align 1, !tbaa !14, !range !16, !noundef !17
  %48 = trunc i8 %47 to i1
  %49 = zext i1 %48 to i8
  store i8 %49, ptr %10, align 1, !tbaa !14
  br label %50

50:                                               ; preds = %46
  br label %51

51:                                               ; preds = %50
  br label %52

52:                                               ; preds = %51
  store i32 -1, ptr %9, align 4, !tbaa !12
  br label %153

53:                                               ; No predecessors!
  br label %54

54:                                               ; preds = %53
  br label %55

55:                                               ; preds = %54
  br label %56

56:                                               ; preds = %55
  br label %57

57:                                               ; preds = %56, %34
  br label %69

58:                                               ; preds = %26
  %59 = load ptr, ptr %4, align 8, !tbaa !3
  %60 = getelementptr inbounds nuw %struct.H5D_chk_idx_info_t, ptr %59, i32 0, i32 3
  %61 = load ptr, ptr %60, align 8, !tbaa !27
  %62 = getelementptr inbounds nuw %struct.H5O_storage_chunk_t, ptr %61, i32 0, i32 3
  %63 = getelementptr inbounds nuw %struct.H5O_storage_chunk_earray_t, ptr %62, i32 0, i32 1
  %64 = load ptr, ptr %63, align 8, !tbaa !26
  %65 = load ptr, ptr %4, align 8, !tbaa !3
  %66 = getelementptr inbounds nuw %struct.H5D_chk_idx_info_t, ptr %65, i32 0, i32 0
  %67 = load ptr, ptr %66, align 8, !tbaa !38
  %68 = call i32 @H5EA_patch_file(ptr noundef %64, ptr noundef %67)
  br label %69

69:                                               ; preds = %58, %57
  %70 = load ptr, ptr %4, align 8, !tbaa !3
  %71 = getelementptr inbounds nuw %struct.H5D_chk_idx_info_t, ptr %70, i32 0, i32 3
  %72 = load ptr, ptr %71, align 8, !tbaa !27
  %73 = getelementptr inbounds nuw %struct.H5O_storage_chunk_t, ptr %72, i32 0, i32 3
  %74 = getelementptr inbounds nuw %struct.H5O_storage_chunk_earray_t, ptr %73, i32 0, i32 1
  %75 = load ptr, ptr %74, align 8, !tbaa !26
  store ptr %75, ptr %7, align 8, !tbaa !58
  %76 = load ptr, ptr %7, align 8, !tbaa !58
  %77 = call i32 @H5EA_get_stats(ptr noundef %76, ptr noundef %8)
  %78 = icmp slt i32 %77, 0
  br i1 %78, label %79, label %98

79:                                               ; preds = %69
  br label %80

80:                                               ; preds = %79
  br label %81

81:                                               ; preds = %80
  br label %82

82:                                               ; preds = %81
  %83 = load i64, ptr @H5E_DATASET_g, align 8, !tbaa !10
  %84 = load i64, ptr @H5E_CANTGET_g, align 8, !tbaa !10
  %85 = call i32 (ptr, ptr, i32, i64, i64, ptr, ...) @H5E_printf_stack(ptr noundef @.str.2, ptr noundef @__func__.H5D__earray_idx_iterate, i32 noundef 1344, i64 noundef %83, i64 noundef %84, ptr noundef @.str.34)
  br label %86

86:                                               ; preds = %82
  br label %87

87:                                               ; preds = %86
  store i8 1, ptr %10, align 1, !tbaa !14
  %88 = load i8, ptr %10, align 1, !tbaa !14, !range !16, !noundef !17
  %89 = trunc i8 %88 to i1
  %90 = zext i1 %89 to i8
  store i8 %90, ptr %10, align 1, !tbaa !14
  br label %91

91:                                               ; preds = %87
  br label %92

92:                                               ; preds = %91
  br label %93

93:                                               ; preds = %92
  store i32 -1, ptr %9, align 4, !tbaa !12
  br label %153

94:                                               ; No predecessors!
  br label %95

95:                                               ; preds = %94
  br label %96

96:                                               ; preds = %95
  br label %97

97:                                               ; preds = %96
  br label %98

98:                                               ; preds = %97, %69
  %99 = getelementptr inbounds nuw %struct.H5EA_stat_t, ptr %8, i32 0, i32 1
  %100 = getelementptr inbounds nuw %struct.anon.7, ptr %99, i32 0, i32 4
  %101 = load i64, ptr %100, align 8, !tbaa !81
  %102 = icmp ugt i64 %101, 0
  br i1 %102, label %103, label %152

103:                                              ; preds = %98
  call void @llvm.lifetime.start.p0(i64 328, ptr %11) #8
  call void @llvm.memset.p0.i64(ptr align 8 %11, i8 0, i64 328, i1 false)
  %104 = load ptr, ptr %4, align 8, !tbaa !3
  %105 = getelementptr inbounds nuw %struct.H5D_chk_idx_info_t, ptr %104, i32 0, i32 2
  %106 = load ptr, ptr %105, align 8, !tbaa !20
  %107 = getelementptr inbounds nuw %struct.H5D_earray_it_ud_t, ptr %11, i32 0, i32 0
  %108 = getelementptr inbounds nuw %struct.H5D_chunk_common_ud_t, ptr %107, i32 0, i32 0
  store ptr %106, ptr %108, align 8, !tbaa !85
  %109 = load ptr, ptr %4, align 8, !tbaa !3
  %110 = getelementptr inbounds nuw %struct.H5D_chk_idx_info_t, ptr %109, i32 0, i32 3
  %111 = load ptr, ptr %110, align 8, !tbaa !27
  %112 = getelementptr inbounds nuw %struct.H5D_earray_it_ud_t, ptr %11, i32 0, i32 0
  %113 = getelementptr inbounds nuw %struct.H5D_chunk_common_ud_t, ptr %112, i32 0, i32 1
  store ptr %111, ptr %113, align 8, !tbaa !88
  %114 = getelementptr inbounds nuw %struct.H5D_earray_it_ud_t, ptr %11, i32 0, i32 1
  call void @llvm.memset.p0.i64(ptr align 8 %114, i8 0, i64 280, i1 false)
  %115 = load ptr, ptr %4, align 8, !tbaa !3
  %116 = getelementptr inbounds nuw %struct.H5D_chk_idx_info_t, ptr %115, i32 0, i32 1
  %117 = load ptr, ptr %116, align 8, !tbaa !28
  %118 = getelementptr inbounds nuw %struct.H5O_pline_t, ptr %117, i32 0, i32 3
  %119 = load i64, ptr %118, align 8, !tbaa !29
  %120 = icmp ugt i64 %119, 0
  %121 = getelementptr inbounds nuw %struct.H5D_earray_it_ud_t, ptr %11, i32 0, i32 2
  %122 = zext i1 %120 to i8
  store i8 %122, ptr %121, align 8, !tbaa !89
  %123 = getelementptr inbounds nuw %struct.H5D_earray_it_ud_t, ptr %11, i32 0, i32 2
  %124 = load i8, ptr %123, align 8, !tbaa !89, !range !16, !noundef !17
  %125 = trunc i8 %124 to i1
  br i1 %125, label %136, label %126

126:                                              ; preds = %103
  %127 = load ptr, ptr %4, align 8, !tbaa !3
  %128 = getelementptr inbounds nuw %struct.H5D_chk_idx_info_t, ptr %127, i32 0, i32 2
  %129 = load ptr, ptr %128, align 8, !tbaa !20
  %130 = getelementptr inbounds nuw %struct.H5O_layout_chunk_t, ptr %129, i32 0, i32 5
  %131 = load i32, ptr %130, align 4, !tbaa !33
  %132 = getelementptr inbounds nuw %struct.H5D_earray_it_ud_t, ptr %11, i32 0, i32 1
  %133 = getelementptr inbounds nuw %struct.H5D_chunk_rec_t, ptr %132, i32 0, i32 1
  store i32 %131, ptr %133, align 8, !tbaa !90
  %134 = getelementptr inbounds nuw %struct.H5D_earray_it_ud_t, ptr %11, i32 0, i32 1
  %135 = getelementptr inbounds nuw %struct.H5D_chunk_rec_t, ptr %134, i32 0, i32 2
  store i32 0, ptr %135, align 4, !tbaa !91
  br label %136

136:                                              ; preds = %126, %103
  %137 = load ptr, ptr %5, align 8, !tbaa !80
  %138 = getelementptr inbounds nuw %struct.H5D_earray_it_ud_t, ptr %11, i32 0, i32 3
  store ptr %137, ptr %138, align 8, !tbaa !92
  %139 = load ptr, ptr %6, align 8, !tbaa !80
  %140 = getelementptr inbounds nuw %struct.H5D_earray_it_ud_t, ptr %11, i32 0, i32 4
  store ptr %139, ptr %140, align 8, !tbaa !93
  %141 = load ptr, ptr %7, align 8, !tbaa !58
  %142 = call i32 @H5EA_iterate(ptr noundef %141, ptr noundef @H5D__earray_idx_iterate_cb, ptr noundef %11)
  store i32 %142, ptr %9, align 4, !tbaa !12
  %143 = icmp slt i32 %142, 0
  br i1 %143, label %144, label %151

144:                                              ; preds = %136
  br label %145

145:                                              ; preds = %144
  %146 = load i64, ptr @H5E_DATASET_g, align 8, !tbaa !10
  %147 = load i64, ptr @H5E_BADITER_g, align 8, !tbaa !10
  %148 = call i32 (ptr, ptr, i32, i64, i64, ptr, ...) @H5E_printf_stack(ptr noundef @.str.2, ptr noundef @__func__.H5D__earray_idx_iterate, i32 noundef 1364, i64 noundef %146, i64 noundef %147, ptr noundef @.str.35)
  br label %149

149:                                              ; preds = %145
  br label %150

150:                                              ; preds = %149
  br label %151

151:                                              ; preds = %150, %136
  call void @llvm.lifetime.end.p0(i64 328, ptr %11) #8
  br label %152

152:                                              ; preds = %151, %98
  br label %153

153:                                              ; preds = %152, %93, %52
  br label %154

154:                                              ; preds = %153, %18
  %155 = load i32, ptr %9, align 4, !tbaa !12
  call void @llvm.lifetime.end.p0(i64 1, ptr %10) #8
  call void @llvm.lifetime.end.p0(i64 4, ptr %9) #8
  call void @llvm.lifetime.end.p0(i64 72, ptr %8) #8
  call void @llvm.lifetime.end.p0(i64 8, ptr %7) #8
  ret i32 %155
}