; Function Attrs: nounwind uwtable
define internal i32 @H5D__earray_idx_iterate(ptr noundef readonly captures(none) %0, ptr noundef %1, ptr noundef %2) #0 {
  %4 = alloca %struct.H5EA_stat_t, align 8
  %5 = alloca %struct.H5D_earray_it_ud_t, align 8
  call void @llvm.lifetime.start.p0(i64 72, ptr nonnull %4) #11
  %6 = load i8, ptr @H5D_init_g, align 1, !tbaa !3, !range !7, !noundef !8
  %7 = trunc nuw i8 %6 to i1
  %8 = load i8, ptr @H5_libterm_g, align 1, !range !7
  %9 = trunc nuw i8 %8 to i1
  %10 = xor i1 %9, true
  %11 = select i1 %7, i1 true, i1 %10
  br i1 %11, label %12, label %68, !prof !9

12:                                               ; preds = %3
  %13 = getelementptr inbounds nuw i8, ptr %0, i64 24
  %14 = load ptr, ptr %13, align 8, !tbaa !22
  %15 = getelementptr inbounds nuw i8, ptr %14, i64 32
  %16 = load ptr, ptr %15, align 8, !tbaa !21
  %.not = icmp eq ptr %16, null
  br i1 %.not, label %17, label %24

17:                                               ; preds = %12
  %18 = tail call i32 @H5D__earray_idx_open(ptr noundef nonnull %0)
  %19 = icmp slt i32 %18, 0
  br i1 %19, label %20, label %27

20:                                               ; preds = %17
  %21 = load i64, ptr @H5E_DATASET_g, align 8, !tbaa !10
  %22 = load i64, ptr @H5E_CANTOPENOBJ_g, align 8, !tbaa !10
  %23 = tail call i32 (ptr, ptr, i32, i64, i64, ptr, ...) @H5E_printf_stack(ptr noundef nonnull @.str.2, ptr noundef nonnull @__func__.H5D__earray_idx_iterate, i32 noundef 1334, i64 noundef %21, i64 noundef %22, ptr noundef nonnull @.str.25) #11
  br label %68

24:                                               ; preds = %12
  %25 = load ptr, ptr %0, align 8, !tbaa !34
  %26 = tail call i32 @H5EA_patch_file(ptr noundef nonnull %16, ptr noundef %25) #11
  br label %27

27:                                               ; preds = %17, %24
  %28 = load ptr, ptr %13, align 8, !tbaa !22
  %29 = getelementptr inbounds nuw i8, ptr %28, i64 32
  %30 = load ptr, ptr %29, align 8, !tbaa !21
  %31 = call i32 @H5EA_get_stats(ptr noundef %30, ptr noundef nonnull %4) #11
  %32 = icmp slt i32 %31, 0
  br i1 %32, label %33, label %37

33:                                               ; preds = %27
  %34 = load i64, ptr @H5E_DATASET_g, align 8, !tbaa !10
  %35 = load i64, ptr @H5E_CANTGET_g, align 8, !tbaa !10
  %36 = call i32 (ptr, ptr, i32, i64, i64, ptr, ...) @H5E_printf_stack(ptr noundef nonnull @.str.2, ptr noundef nonnull @__func__.H5D__earray_idx_iterate, i32 noundef 1344, i64 noundef %34, i64 noundef %35, ptr noundef nonnull @.str.34) #11
  br label %68

37:                                               ; preds = %27
  %38 = getelementptr inbounds nuw i8, ptr %4, i64 56
  %39 = load i64, ptr %38, align 8, !tbaa !67
  %.not16 = icmp eq i64 %39, 0
  br i1 %.not16, label %68, label %40

40:                                               ; preds = %37
  call void @llvm.lifetime.start.p0(i64 328, ptr nonnull %5) #11
  %41 = getelementptr inbounds nuw i8, ptr %5, i64 16
  call void @llvm.memset.p0.i64(ptr noundef nonnull align 8 dereferenceable(328) %41, i8 0, i64 296, i1 false)
  %42 = getelementptr inbounds nuw i8, ptr %0, i64 16
  %43 = load ptr, ptr %42, align 8, !tbaa !14
  store ptr %43, ptr %5, align 8, !tbaa !71
  %44 = load ptr, ptr %13, align 8, !tbaa !22
  %45 = getelementptr inbounds nuw i8, ptr %5, i64 8
  store ptr %44, ptr %45, align 8, !tbaa !74
  %46 = getelementptr inbounds nuw i8, ptr %5, i64 24
  call void @llvm.memset.p0.i64(ptr noundef nonnull align 8 dereferenceable(280) %46, i8 0, i64 280, i1 false)
  %47 = getelementptr inbounds nuw i8, ptr %0, i64 8
  %48 = load ptr, ptr %47, align 8, !tbaa !23
  %49 = getelementptr inbounds nuw i8, ptr %48, i64 56
  %50 = load i64, ptr %49, align 8, !tbaa !24
  %51 = icmp ne i64 %50, 0
  %52 = getelementptr inbounds nuw i8, ptr %5, i64 304
  %53 = zext i1 %51 to i8
  store i8 %53, ptr %52, align 8, !tbaa !75
  br i1 %51, label %58, label %54

54:                                               ; preds = %40
  %55 = getelementptr inbounds nuw i8, ptr %43, i64 148
  %56 = load i32, ptr %55, align 4, !tbaa !29
  %57 = getelementptr inbounds nuw i8, ptr %5, i64 288
  store i32 %56, ptr %57, align 8, !tbaa !76
  br label %58

58:                                               ; preds = %54, %40
  %59 = getelementptr inbounds nuw i8, ptr %5, i64 312
  store ptr %1, ptr %59, align 8, !tbaa !77
  %60 = getelementptr inbounds nuw i8, ptr %5, i64 320
  store ptr %2, ptr %60, align 8, !tbaa !78
  %61 = call i32 @H5EA_iterate(ptr noundef %30, ptr noundef nonnull @H5D__earray_idx_iterate_cb, ptr noundef nonnull %5) #11
  %62 = icmp slt i32 %61, 0
  br i1 %62, label %63, label %67

63:                                               ; preds = %58
  %64 = load i64, ptr @H5E_DATASET_g, align 8, !tbaa !10
  %65 = load i64, ptr @H5E_BADITER_g, align 8, !tbaa !10
  %66 = call i32 (ptr, ptr, i32, i64, i64, ptr, ...) @H5E_printf_stack(ptr noundef nonnull @.str.2, ptr noundef nonnull @__func__.H5D__earray_idx_iterate, i32 noundef 1364, i64 noundef %64, i64 noundef %65, ptr noundef nonnull @.str.35) #11
  br label %67

67:                                               ; preds = %63, %58
  call void @llvm.lifetime.end.p0(i64 328, ptr nonnull %5) #11
  br label %68

68:                                               ; preds = %20, %33, %67, %37, %3
  %.0 = phi i32 [ -1, %33 ], [ %61, %67 ], [ 0, %37 ], [ -1, %20 ], [ 0, %3 ]
  call void @llvm.lifetime.end.p0(i64 72, ptr nonnull %4) #11
  ret i32 %.0
}